target datalayout = "e-m:e-p270:32:32-p271:32:32-p272:64:64-i64:64-i128:128-f80:128-n8:16:32:64-S128"
target triple = "x86_64-pc-linux-gnu"

%"class.datalog::dl_decl_plugin" = type { %class.decl_plugin.base, %class.symbol, %class.symbol, %class.symbol, %class.symbol, %class.symbol, %class.symbol, %class.symbol, %class.symbol, %class.symbol, %class.symbol, %class.symbol, %class.symbol, %class.symbol, %class.symbol, %class.symbol, %class.symbol, %class.symbol }
%class.decl_plugin.base = type <{ ptr, ptr, i32 }>
%class.symbol = type { ptr }
%class.decl_plugin = type <{ ptr, ptr, i32, [4 x i8] }>

@.str = private unnamed_addr constant [6 x i8] c"store\00", align 1
@.str.1 = private unnamed_addr constant [6 x i8] c"empty\00", align 1
@.str.2 = private unnamed_addr constant [9 x i8] c"is_empty\00", align 1
@.str.3 = private unnamed_addr constant [5 x i8] c"join\00", align 1
@.str.4 = private unnamed_addr constant [6 x i8] c"union\00", align 1
@.str.5 = private unnamed_addr constant [6 x i8] c"widen\00", align 1
@.str.6 = private unnamed_addr constant [8 x i8] c"project\00", align 1
@.str.7 = private unnamed_addr constant [7 x i8] c"filter\00", align 1
@.str.8 = private unnamed_addr constant [16 x i8] c"negation_filter\00", align 1
@.str.9 = private unnamed_addr constant [7 x i8] c"rename\00", align 1
@.str.10 = private unnamed_addr constant [11 x i8] c"complement\00", align 1
@.str.11 = private unnamed_addr constant [7 x i8] c"select\00", align 1
@.str.12 = private unnamed_addr constant [6 x i8] c"clone\00", align 1
@.str.13 = private unnamed_addr constant [2 x i8] c"N\00", align 1
@.str.14 = private unnamed_addr constant [2 x i8] c"<\00", align 1
@.str.15 = private unnamed_addr constant [3 x i8] c"<=\00", align 1
@.str.16 = private unnamed_addr constant [2 x i8] c"R\00", align 1
@_ZTV11decl_plugin = external unnamed_addr constant { [23 x ptr] }, align 8

; Function Attrs: mustprogress nounwind uwtable
define linkonce_odr hidden void @_ZN11decl_pluginD2Ev(ptr noundef nonnull align 8 dereferenceable(20) %0) unnamed_addr #9 comdat align 2 {
  %2 = alloca ptr, align 8
  store ptr %0, ptr %2, align 8, !tbaa !10
  ret void
}

; Function Attrs: inlinehint mustprogress nounwind uwtable
define linkonce_odr hidden void @_ZN11decl_pluginC2Ev(ptr noundef nonnull align 8 dereferenceable(20) %0) unnamed_addr #5 comdat align 2 {
  %2 = alloca ptr, align 8
  store ptr %0, ptr %2, align 8, !tbaa !10
  %3 = load ptr, ptr %2, align 8
  store ptr getelementptr inbounds inrange(-16, 168) ({ [23 x ptr] }, ptr @_ZTV11decl_plugin, i32 0, i32 0, i32 2), ptr %3, align 8, !tbaa !8
  %4 = getelementptr inbounds nuw %class.decl_plugin, ptr %3, i32 0, i32 1
  store ptr null, ptr %4, align 8, !tbaa !12
  %5 = getelementptr inbounds nuw %class.decl_plugin, ptr %3, i32 0, i32 2
  store i32 -1, ptr %5, align 8, !tbaa !16
  ret void
}

; Function Attrs: mustprogress uwtable
define hidden void @_ZN7datalog14dl_decl_pluginC2Ev(ptr noundef nonnull align 8 dereferenceable(160) %0) unnamed_addr #4 align 2 personality ptr @__gxx_personality_v0 {
  %2 = alloca ptr, align 8
  %3 = alloca ptr, align 8
  %4 = alloca i32, align 4
  store ptr %0, ptr %2, align 8, !tbaa !3
  %5 = load ptr, ptr %2, align 8
  call void @_ZN11decl_pluginC2Ev(ptr noundef nonnull align 8 dereferenceable(20) %5) #3
  store ptr getelementptr inbounds inrange(-16, 168) ({ [23 x ptr] }, ptr @_ZTVN7datalog14dl_decl_pluginE, i32 0, i32 0, i32 2), ptr %5, align 8, !tbaa !8
  %6 = getelementptr inbounds nuw %"class.datalog::dl_decl_plugin", ptr %5, i32 0, i32 1
  invoke void @_ZN6symbolC1EPKc(ptr noundef nonnull align 8 dereferenceable(8) %6, ptr noundef @.str)
          to label %7 unwind label %40

7:                                                ; preds = %1
  %8 = getelementptr inbounds nuw %"class.datalog::dl_decl_plugin", ptr %5, i32 0, i32 2
  invoke void @_ZN6symbolC1EPKc(ptr noundef nonnull align 8 dereferenceable(8) %8, ptr noundef @.str.1)
          to label %9 unwind label %40

9:                                                ; preds = %7
  %10 = getelementptr inbounds nuw %"class.datalog::dl_decl_plugin", ptr %5, i32 0, i32 3
  invoke void @_ZN6symbolC1EPKc(ptr noundef nonnull align 8 dereferenceable(8) %10, ptr noundef @.str.2)
          to label %11 unwind label %40

11:                                               ; preds = %9
  %12 = getelementptr inbounds nuw %"class.datalog::dl_decl_plugin", ptr %5, i32 0, i32 4
  invoke void @_ZN6symbolC1EPKc(ptr noundef nonnull align 8 dereferenceable(8) %12, ptr noundef @.str.3)
          to label %13 unwind label %40

13:                                               ; preds = %11
  %14 = getelementptr inbounds nuw %"class.datalog::dl_decl_plugin", ptr %5, i32 0, i32 5
  invoke void @_ZN6symbolC1EPKc(ptr noundef nonnull align 8 dereferenceable(8) %14, ptr noundef @.str.4)
          to label %15 unwind label %40

15:                                               ; preds = %13
  %16 = getelementptr inbounds nuw %"class.datalog::dl_decl_plugin", ptr %5, i32 0, i32 6
  invoke void @_ZN6symbolC1EPKc(ptr noundef nonnull align 8 dereferenceable(8) %16, ptr noundef @.str.5)
          to label %17 unwind label %40

17:                                               ; preds = %15
  %18 = getelementptr inbounds nuw %"class.datalog::dl_decl_plugin", ptr %5, i32 0, i32 7
  invoke void @_ZN6symbolC1EPKc(ptr noundef nonnull align 8 dereferenceable(8) %18, ptr noundef @.str.6)
          to label %19 unwind label %40

19:                                               ; preds = %17
  %20 = getelementptr inbounds nuw %"class.datalog::dl_decl_plugin", ptr %5, i32 0, i32 8
  invoke void @_ZN6symbolC1EPKc(ptr noundef nonnull align 8 dereferenceable(8) %20, ptr noundef @.str.7)
          to label %21 unwind label %40

21:                                               ; preds = %19
  %22 = getelementptr inbounds nuw %"class.datalog::dl_decl_plugin", ptr %5, i32 0, i32 9
  invoke void @_ZN6symbolC1EPKc(ptr noundef nonnull align 8 dereferenceable(8) %22, ptr noundef @.str.8)
          to label %23 unwind label %40

23:                                               ; preds = %21
  %24 = getelementptr inbounds nuw %"class.datalog::dl_decl_plugin", ptr %5, i32 0, i32 10
  invoke void @_ZN6symbolC1EPKc(ptr noundef nonnull align 8 dereferenceable(8) %24, ptr noundef @.str.9)
          to label %25 unwind label %40

25:                                               ; preds = %23
  %26 = getelementptr inbounds nuw %"class.datalog::dl_decl_plugin", ptr %5, i32 0, i32 11
  invoke void @_ZN6symbolC1EPKc(ptr noundef nonnull align 8 dereferenceable(8) %26, ptr noundef @.str.10)
          to label %27 unwind label %40

27:                                               ; preds = %25
  %28 = getelementptr inbounds nuw %"class.datalog::dl_decl_plugin", ptr %5, i32 0, i32 12
  invoke void @_ZN6symbolC1EPKc(ptr noundef nonnull align 8 dereferenceable(8) %28, ptr noundef @.str.11)
          to label %29 unwind label %40

29:                                               ; preds = %27
  %30 = getelementptr inbounds nuw %"class.datalog::dl_decl_plugin", ptr %5, i32 0, i32 13
  invoke void @_ZN6symbolC1EPKc(ptr noundef nonnull align 8 dereferenceable(8) %30, ptr noundef @.str.12)
          to label %31 unwind label %40

31:                                               ; preds = %29
  %32 = getelementptr inbounds nuw %"class.datalog::dl_decl_plugin", ptr %5, i32 0, i32 14
  invoke void @_ZN6symbolC1EPKc(ptr noundef nonnull align 8 dereferenceable(8) %32, ptr noundef @.str.13)
          to label %33 unwind label %40

33:                                               ; preds = %31
  %34 = getelementptr inbounds nuw %"class.datalog::dl_decl_plugin", ptr %5, i32 0, i32 15
  invoke void @_ZN6symbolC1EPKc(ptr noundef nonnull align 8 dereferenceable(8) %34, ptr noundef @.str.14)
          to label %35 unwind label %40

35:                                               ; preds = %33
  %36 = getelementptr inbounds nuw %"class.datalog::dl_decl_plugin", ptr %5, i32 0, i32 16
  invoke void @_ZN6symbolC1EPKc(ptr noundef nonnull align 8 dereferenceable(8) %36, ptr noundef @.str.15)
          to label %37 unwind label %40

37:                                               ; preds = %35
  %38 = getelementptr inbounds nuw %"class.datalog::dl_decl_plugin", ptr %5, i32 0, i32 17
  invoke void @_ZN6symbolC1EPKc(ptr noundef nonnull align 8 dereferenceable(8) %38, ptr noundef @.str.16)
          to label %39 unwind label %40

39:                                               ; preds = %37
  ret void

40:                                               ; preds = %37, %35, %33, %31, %29, %27, %25, %23, %21, %19, %17, %15, %13, %11, %9, %7, %1
  %41 = landingpad { ptr, i32 }
          cleanup
  %42 = extractvalue { ptr, i32 } %41, 0
  store ptr %42, ptr %3, align 8
  %43 = extractvalue { ptr, i32 } %41, 1
  store i32 %43, ptr %4, align 4
  call void @_ZN11decl_pluginD2Ev(ptr noundef nonnull align 8 dereferenceable(20) %5) #3
  br label %44

44:                                               ; preds = %40
  %45 = load ptr, ptr %3, align 8
  %46 = load i32, ptr %4, align 4
  %47 = insertvalue { ptr, i32 } poison, ptr %45, 0
  %48 = insertvalue { ptr, i32 } %47, i32 %46, 1
  resume { ptr, i32 } %48
}