; Function Attrs: mustprogress uwtable
define hidden void @_ZN7datalog14dl_decl_pluginC2Ev(ptr noundef nonnull align 8 dereferenceable(160) initializes((0, 20)) %0) unnamed_addr #3 align 2 personality ptr @__gxx_personality_v0 {
  %2 = getelementptr inbounds nuw i8, ptr %0, i64 8
  store ptr null, ptr %2, align 8, !tbaa !3
  %3 = getelementptr inbounds nuw i8, ptr %0, i64 16
  store i32 -1, ptr %3, align 8, !tbaa !10
  store ptr getelementptr inbounds nuw inrange(-16, 168) (i8, ptr @_ZTVN7datalog14dl_decl_pluginE, i64 16), ptr %0, align 8, !tbaa !11
  %4 = getelementptr inbounds nuw i8, ptr %0, i64 24
  tail call void @_ZN6symbolC1EPKc(ptr noundef nonnull align 8 dereferenceable(8) %4, ptr noundef nonnull @.str)
  %5 = getelementptr inbounds nuw i8, ptr %0, i64 32
  tail call void @_ZN6symbolC1EPKc(ptr noundef nonnull align 8 dereferenceable(8) %5, ptr noundef nonnull @.str.1)
  %6 = getelementptr inbounds nuw i8, ptr %0, i64 40
  tail call void @_ZN6symbolC1EPKc(ptr noundef nonnull align 8 dereferenceable(8) %6, ptr noundef nonnull @.str.2)
  %7 = getelementptr inbounds nuw i8, ptr %0, i64 48
  tail call void @_ZN6symbolC1EPKc(ptr noundef nonnull align 8 dereferenceable(8) %7, ptr noundef nonnull @.str.3)
  %8 = getelementptr inbounds nuw i8, ptr %0, i64 56
  tail call void @_ZN6symbolC1EPKc(ptr noundef nonnull align 8 dereferenceable(8) %8, ptr noundef nonnull @.str.4)
  %9 = getelementptr inbounds nuw i8, ptr %0, i64 64
  tail call void @_ZN6symbolC1EPKc(ptr noundef nonnull align 8 dereferenceable(8) %9, ptr noundef nonnull @.str.5)
  %10 = getelementptr inbounds nuw i8, ptr %0, i64 72
  tail call void @_ZN6symbolC1EPKc(ptr noundef nonnull align 8 dereferenceable(8) %10, ptr noundef nonnull @.str.6)
  %11 = getelementptr inbounds nuw i8, ptr %0, i64 80
  tail call void @_ZN6symbolC1EPKc(ptr noundef nonnull align 8 dereferenceable(8) %11, ptr noundef nonnull @.str.7)
  %12 = getelementptr inbounds nuw i8, ptr %0, i64 88
  tail call void @_ZN6symbolC1EPKc(ptr noundef nonnull align 8 dereferenceable(8) %12, ptr noundef nonnull @.str.8)
  %13 = getelementptr inbounds nuw i8, ptr %0, i64 96
  tail call void @_ZN6symbolC1EPKc(ptr noundef nonnull align 8 dereferenceable(8) %13, ptr noundef nonnull @.str.9)
  %14 = getelementptr inbounds nuw i8, ptr %0, i64 104
  tail call void @_ZN6symbolC1EPKc(ptr noundef nonnull align 8 dereferenceable(8) %14, ptr noundef nonnull @.str.10)
  %15 = getelementptr inbounds nuw i8, ptr %0, i64 112
  tail call void @_ZN6symbolC1EPKc(ptr noundef nonnull align 8 dereferenceable(8) %15, ptr noundef nonnull @.str.11)
  %16 = getelementptr inbounds nuw i8, ptr %0, i64 120
  tail call void @_ZN6symbolC1EPKc(ptr noundef nonnull align 8 dereferenceable(8) %16, ptr noundef nonnull @.str.12)
  %17 = getelementptr inbounds nuw i8, ptr %0, i64 128
  tail call void @_ZN6symbolC1EPKc(ptr noundef nonnull align 8 dereferenceable(8) %17, ptr noundef nonnull @.str.13)
  %18 = getelementptr inbounds nuw i8, ptr %0, i64 136
  tail call void @_ZN6symbolC1EPKc(ptr noundef nonnull align 8 dereferenceable(8) %18, ptr noundef nonnull @.str.14)
  %19 = getelementptr inbounds nuw i8, ptr %0, i64 144
  tail call void @_ZN6symbolC1EPKc(ptr noundef nonnull align 8 dereferenceable(8) %19, ptr noundef nonnull @.str.15)
  %20 = getelementptr inbounds nuw i8, ptr %0, i64 152
  tail call void @_ZN6symbolC1EPKc(ptr noundef nonnull align 8 dereferenceable(8) %20, ptr noundef nonnull @.str.16)
  ret void
}